; Function Attrs: nofree norecurse nosync nounwind null_pointer_is_valid sspstrong memory(read, inaccessiblemem: none) uwtable
define hidden i32 @rtpstream_id_to_hash(ptr noundef readonly captures(address_is_null) %0) local_unnamed_addr #2 {
  %.not = icmp eq ptr %0, null
  br i1 %.not, label %add_address_to_hash.exit20, label %2

2:                                                ; preds = %1
  %3 = getelementptr inbounds nuw i8, ptr %0, i64 24
  %4 = load i16, ptr %3, align 8
  %5 = zext i16 %4 to i32
  %6 = getelementptr inbounds nuw i8, ptr %0, i64 56
  %7 = load i16, ptr %6, align 8
  %8 = zext i16 %7 to i32
  %9 = shl nuw i32 %8, 16
  %10 = or disjoint i32 %9, %5
  %11 = getelementptr inbounds nuw i8, ptr %0, i64 60
  %12 = load i32, ptr %11, align 4
  %13 = xor i32 %10, %12
  %14 = getelementptr inbounds nuw i8, ptr %0, i64 8
  %15 = load ptr, ptr %14, align 8
  %16 = getelementptr inbounds nuw i8, ptr %0, i64 4
  %17 = load i32, ptr %16, align 4
  %18 = icmp sgt i32 %17, 0
  br i1 %18, label %.lr.ph.preheader.i, label %add_address_to_hash.exit

.lr.ph.preheader.i:                               ; preds = %2
  %wide.trip.count.i = zext nneg i32 %17 to i64
  br label %.lr.ph.i

.lr.ph.i:                                         ; preds = %.lr.ph.i, %.lr.ph.preheader.i
  %indvars.iv.i = phi i64 [ 0, %.lr.ph.preheader.i ], [ %indvars.iv.next.i, %.lr.ph.i ]
  %.01112.i = phi i32 [ %13, %.lr.ph.preheader.i ], [ %25, %.lr.ph.i ]
  %19 = getelementptr i8, ptr %15, i64 %indvars.iv.i
  %20 = load i8, ptr %19, align 1
  %21 = zext i8 %20 to i32
  %22 = add i32 %.01112.i, %21
  %23 = mul i32 %22, 1025
  %24 = lshr i32 %23, 6
  %25 = xor i32 %24, %23
  %indvars.iv.next.i = add nuw nsw i64 %indvars.iv.i, 1
  %exitcond.not.i = icmp eq i64 %indvars.iv.next.i, %wide.trip.count.i
  br i1 %exitcond.not.i, label %add_address_to_hash.exit, label %.lr.ph.i, !llvm.loop !6

add_address_to_hash.exit:                         ; preds = %.lr.ph.i, %2
  %.011.lcssa.i = phi i32 [ %13, %2 ], [ %25, %.lr.ph.i ]
  %26 = getelementptr inbounds nuw i8, ptr %0, i64 40
  %27 = load ptr, ptr %26, align 8
  %28 = getelementptr inbounds nuw i8, ptr %0, i64 36
  %29 = load i32, ptr %28, align 4
  %30 = icmp sgt i32 %29, 0
  br i1 %30, label %.lr.ph.preheader.i13, label %add_address_to_hash.exit20

.lr.ph.preheader.i13:                             ; preds = %add_address_to_hash.exit
  %wide.trip.count.i14 = zext nneg i32 %29 to i64
  br label %.lr.ph.i15

.lr.ph.i15:                                       ; preds = %.lr.ph.i15, %.lr.ph.preheader.i13
  %indvars.iv.i16 = phi i64 [ 0, %.lr.ph.preheader.i13 ], [ %indvars.iv.next.i18, %.lr.ph.i15 ]
  %.01112.i17 = phi i32 [ %.011.lcssa.i, %.lr.ph.preheader.i13 ], [ %37, %.lr.ph.i15 ]
  %31 = getelementptr i8, ptr %27, i64 %indvars.iv.i16
  %32 = load i8, ptr %31, align 1
  %33 = zext i8 %32 to i32
  %34 = add i32 %.01112.i17, %33
  %35 = mul i32 %34, 1025
  %36 = lshr i32 %35, 6
  %37 = xor i32 %36, %35
  %indvars.iv.next.i18 = add nuw nsw i64 %indvars.iv.i16, 1
  %exitcond.not.i19 = icmp eq i64 %indvars.iv.next.i18, %wide.trip.count.i14
  br i1 %exitcond.not.i19, label %add_address_to_hash.exit20, label %.lr.ph.i15, !llvm.loop !6

add_address_to_hash.exit20:                       ; preds = %.lr.ph.i15, %add_address_to_hash.exit, %1
  %.0 = phi i32 [ 0, %1 ], [ %.011.lcssa.i, %add_address_to_hash.exit ], [ %37, %.lr.ph.i15 ]
  ret i32 %.0
}